target datalayout = "e-m:e-p270:32:32-p271:32:32-p272:64:64-i64:64-i128:128-f80:128-n8:16:32:64-S128"
target triple = "x86_64-pc-linux-gnu"

%struct.FullTransactionId = type { i64 }
%struct.FunctionCallInfoBaseData = type { ptr, ptr, ptr, i32, i8, i16, [0 x %struct.NullableDatum] }
%struct.NullableDatum = type { i64, i8 }
%union.LWLockPadded = type { %struct.LWLock, [112 x i8] }
%struct.LWLock = type { i16, %struct.pg_atomic_uint32, %struct.proclist_head }
%struct.pg_atomic_uint32 = type { i32 }
%struct.proclist_head = type { i32, i32 }
%struct.TransamVariablesData = type { i32, i32, %struct.FullTransactionId, i32, i32, i32, i32, i32, i32, i32, i32, %struct.FullTransactionId, i64, i32 }

@.str.2 = private unnamed_addr constant [12 x i8] c"xid8funcs.c\00", align 1
@MainLWLockArray = external global ptr, align 8
@.str.6 = private unnamed_addr constant [12 x i8] c"in progress\00", align 1
@.str.7 = private unnamed_addr constant [10 x i8] c"committed\00", align 1
@.str.8 = private unnamed_addr constant [8 x i8] c"aborted\00", align 1
@.str.11 = private unnamed_addr constant [37 x i8] c"transaction ID %llu is in the future\00", align 1
@__func__.TransactionIdInRecentPast = private unnamed_addr constant [26 x i8] c"TransactionIdInRecentPast\00", align 1
@TransamVariables = external global ptr, align 8

; Function Attrs: inlinehint nounwind uwtable
define internal i64 @FullTransactionIdFromEpochAndXid(i32 noundef %0, i32 noundef %1) #2 {
  %3 = alloca %struct.FullTransactionId, align 8
  %4 = alloca i32, align 4
  %5 = alloca i32, align 4
  store i32 %0, ptr %4, align 4
  store i32 %1, ptr %5, align 4
  %6 = load i32, ptr %4, align 4
  %7 = zext i32 %6 to i64
  %8 = shl i64 %7, 32
  %9 = load i32, ptr %5, align 4
  %10 = zext i32 %9 to i64
  %11 = or i64 %8, %10
  %12 = getelementptr inbounds nuw %struct.FullTransactionId, ptr %3, i32 0, i32 0
  store i64 %11, ptr %12, align 8
  %13 = getelementptr inbounds nuw %struct.FullTransactionId, ptr %3, i32 0, i32 0
  %14 = load i64, ptr %13, align 8
  ret i64 %14
}

; Function Attrs: inlinehint nounwind uwtable
define internal i64 @FullTransactionIdFromAllowableAt(i64 %0, i32 noundef %1) #2 {
  %3 = alloca %struct.FullTransactionId, align 8
  %4 = alloca %struct.FullTransactionId, align 8
  %5 = alloca i32, align 4
  %6 = alloca i32, align 4
  %7 = alloca i32, align 4
  %8 = getelementptr inbounds nuw %struct.FullTransactionId, ptr %4, i32 0, i32 0
  store i64 %0, ptr %8, align 8
  store i32 %1, ptr %5, align 4
  call void @llvm.lifetime.start.p0(i64 4, ptr %6) #9
  %9 = load i32, ptr %5, align 4
  %10 = icmp uge i32 %9, 3
  br i1 %10, label %15, label %11

11:                                               ; preds = %2
  %12 = load i32, ptr %5, align 4
  %13 = call i64 @FullTransactionIdFromEpochAndXid(i32 noundef 0, i32 noundef %12)
  %14 = getelementptr inbounds nuw %struct.FullTransactionId, ptr %3, i32 0, i32 0
  store i64 %13, ptr %14, align 8
  store i32 1, ptr %7, align 4
  br label %39

15:                                               ; preds = %2
  %16 = getelementptr inbounds nuw %struct.FullTransactionId, ptr %4, i32 0, i32 0
  %17 = load i64, ptr %16, align 8
  %18 = lshr i64 %17, 32
  %19 = trunc i64 %18 to i32
  store i32 %19, ptr %6, align 4
  %20 = load i32, ptr %5, align 4
  %21 = getelementptr inbounds nuw %struct.FullTransactionId, ptr %4, i32 0, i32 0
  %22 = load i64, ptr %21, align 8
  %23 = trunc i64 %22 to i32
  %24 = icmp ugt i32 %20, %23
  %25 = zext i1 %24 to i32
  %26 = icmp ne i32 %25, 0
  %27 = zext i1 %26 to i32
  %28 = sext i32 %27 to i64
  %29 = call i64 @llvm.expect.i64(i64 %28, i64 0)
  %30 = icmp ne i64 %29, 0
  br i1 %30, label %31, label %34

31:                                               ; preds = %15
  %32 = load i32, ptr %6, align 4
  %33 = add i32 %32, -1
  store i32 %33, ptr %6, align 4
  br label %34

34:                                               ; preds = %31, %15
  %35 = load i32, ptr %6, align 4
  %36 = load i32, ptr %5, align 4
  %37 = call i64 @FullTransactionIdFromEpochAndXid(i32 noundef %35, i32 noundef %36)
  %38 = getelementptr inbounds nuw %struct.FullTransactionId, ptr %3, i32 0, i32 0
  store i64 %37, ptr %38, align 8
  store i32 1, ptr %7, align 4
  br label %39

39:                                               ; preds = %34, %11
  call void @llvm.lifetime.end.p0(i64 4, ptr %6) #9
  %40 = getelementptr inbounds nuw %struct.FullTransactionId, ptr %3, i32 0, i32 0
  %41 = load i64, ptr %40, align 8
  ret i64 %41
}

; Function Attrs: inlinehint nounwind uwtable
define internal i64 @FullTransactionIdFromU64(i64 noundef %0) #2 {
  %2 = alloca %struct.FullTransactionId, align 8
  %3 = alloca i64, align 8
  store i64 %0, ptr %3, align 8
  %4 = load i64, ptr %3, align 8
  %5 = getelementptr inbounds nuw %struct.FullTransactionId, ptr %2, i32 0, i32 0
  store i64 %4, ptr %5, align 8
  %6 = getelementptr inbounds nuw %struct.FullTransactionId, ptr %2, i32 0, i32 0
  %7 = load i64, ptr %6, align 8
  ret i64 %7
}

; Function Attrs: inlinehint nounwind uwtable
define internal i64 @DatumGetUInt64(i64 noundef %0) #2 {
  %2 = alloca i64, align 8
  store i64 %0, ptr %2, align 8
  %3 = load i64, ptr %2, align 8
  ret i64 %3
}

; Function Attrs: inlinehint nounwind uwtable
define internal i64 @PointerGetDatum(ptr noundef %0) #2 {
  %2 = alloca ptr, align 8
  store ptr %0, ptr %2, align 8
  %3 = load ptr, ptr %2, align 8
  %4 = ptrtoint ptr %3 to i64
  ret i64 %4
}

; Function Attrs: nounwind uwtable
define internal zeroext i1 @TransactionIdInRecentPast(i64 %0, ptr noundef %1) #0 {
  %3 = alloca i1, align 1
  %4 = alloca %struct.FullTransactionId, align 8
  %5 = alloca ptr, align 8
  %6 = alloca i32, align 4
  %7 = alloca %struct.FullTransactionId, align 8
  %8 = alloca i32, align 4
  %9 = alloca %struct.FullTransactionId, align 8
  %10 = alloca %struct.FullTransactionId, align 8
  %11 = alloca i32, align 4
  %12 = alloca %struct.FullTransactionId, align 8
  %13 = getelementptr inbounds nuw %struct.FullTransactionId, ptr %4, i32 0, i32 0
  store i64 %0, ptr %13, align 8
  store ptr %1, ptr %5, align 8
  call void @llvm.lifetime.start.p0(i64 4, ptr %6) #9
  %14 = getelementptr inbounds nuw %struct.FullTransactionId, ptr %4, i32 0, i32 0
  %15 = load i64, ptr %14, align 8
  %16 = trunc i64 %15 to i32
  store i32 %16, ptr %6, align 4
  call void @llvm.lifetime.start.p0(i64 8, ptr %7) #9
  call void @llvm.lifetime.start.p0(i64 4, ptr %8) #9
  call void @llvm.lifetime.start.p0(i64 8, ptr %9) #9
  call void @llvm.lifetime.start.p0(i64 8, ptr %10) #9
  %17 = call i64 @ReadNextFullTransactionId()
  %18 = getelementptr inbounds nuw %struct.FullTransactionId, ptr %10, i32 0, i32 0
  store i64 %17, ptr %18, align 8
  call void @llvm.memcpy.p0.p0.i64(ptr align 8 %7, ptr align 8 %10, i64 8, i1 false)
  call void @llvm.lifetime.end.p0(i64 8, ptr %10) #9
  %19 = load ptr, ptr %5, align 8
  %20 = icmp ne ptr %19, null
  br i1 %20, label %21, label %24

21:                                               ; preds = %2
  %22 = load i32, ptr %6, align 4
  %23 = load ptr, ptr %5, align 8
  store i32 %22, ptr %23, align 4
  br label %24

24:                                               ; preds = %21, %2
  %25 = load i32, ptr %6, align 4
  %26 = icmp ne i32 %25, 0
  br i1 %26, label %28, label %27

27:                                               ; preds = %24
  store i1 false, ptr %3, align 1
  store i32 1, ptr %11, align 4
  br label %67

28:                                               ; preds = %24
  %29 = load i32, ptr %6, align 4
  %30 = icmp uge i32 %29, 3
  br i1 %30, label %32, label %31

31:                                               ; preds = %28
  store i1 true, ptr %3, align 1
  store i32 1, ptr %11, align 4
  br label %67

32:                                               ; preds = %28
  %33 = getelementptr inbounds nuw %struct.FullTransactionId, ptr %4, i32 0, i32 0
  %34 = load i64, ptr %33, align 8
  %35 = getelementptr inbounds nuw %struct.FullTransactionId, ptr %7, i32 0, i32 0
  %36 = load i64, ptr %35, align 8
  %37 = icmp ult i64 %34, %36
  br i1 %37, label %52, label %38

38:                                               ; preds = %32
  br label %39

39:                                               ; preds = %38
  br i1 true, label %40, label %42

40:                                               ; preds = %39
  %41 = call zeroext i1 @errstart_cold(i32 noundef 21, ptr noundef null) #10
  br i1 %41, label %44, label %49

42:                                               ; preds = %39
  %43 = call zeroext i1 @errstart(i32 noundef 21, ptr noundef null)
  br i1 %43, label %44, label %49

44:                                               ; preds = %42, %40
  %45 = call i32 @errcode(i32 noundef 50856066)
  %46 = getelementptr inbounds nuw %struct.FullTransactionId, ptr %4, i32 0, i32 0
  %47 = load i64, ptr %46, align 8
  %48 = call i32 (ptr, ...) @errmsg(ptr noundef @.str.11, i64 noundef %47)
  call void @errfinish(ptr noundef @.str.2, i32 noundef 121, ptr noundef @__func__.TransactionIdInRecentPast)
  br label %49

49:                                               ; preds = %44, %42, %40
  unreachable

50:                                               ; No predecessors!
  br label %51

51:                                               ; preds = %50
  br label %52

52:                                               ; preds = %51, %32
  %53 = load ptr, ptr @TransamVariables, align 8
  %54 = getelementptr inbounds nuw %struct.TransamVariablesData, ptr %53, i32 0, i32 13
  %55 = load i32, ptr %54, align 8
  store i32 %55, ptr %8, align 4
  call void @llvm.lifetime.start.p0(i64 8, ptr %12) #9
  %56 = load i32, ptr %8, align 4
  %57 = getelementptr inbounds nuw %struct.FullTransactionId, ptr %7, i32 0, i32 0
  %58 = load i64, ptr %57, align 8
  %59 = call i64 @FullTransactionIdFromAllowableAt(i64 %58, i32 noundef %56)
  %60 = getelementptr inbounds nuw %struct.FullTransactionId, ptr %12, i32 0, i32 0
  store i64 %59, ptr %60, align 8
  call void @llvm.memcpy.p0.p0.i64(ptr align 8 %9, ptr align 8 %12, i64 8, i1 false)
  call void @llvm.lifetime.end.p0(i64 8, ptr %12) #9
  %61 = getelementptr inbounds nuw %struct.FullTransactionId, ptr %4, i32 0, i32 0
  %62 = load i64, ptr %61, align 8
  %63 = getelementptr inbounds nuw %struct.FullTransactionId, ptr %9, i32 0, i32 0
  %64 = load i64, ptr %63, align 8
  %65 = icmp ult i64 %62, %64
  %66 = xor i1 %65, true
  store i1 %66, ptr %3, align 1
  store i32 1, ptr %11, align 4
  br label %67

67:                                               ; preds = %52, %31, %27
  call void @llvm.lifetime.end.p0(i64 8, ptr %9) #9
  call void @llvm.lifetime.end.p0(i64 4, ptr %8) #9
  call void @llvm.lifetime.end.p0(i64 8, ptr %7) #9
  call void @llvm.lifetime.end.p0(i64 4, ptr %6) #9
  %68 = load i1, ptr %3, align 1
  ret i1 %68
}

; Function Attrs: inlinehint nounwind uwtable
define internal i64 @DatumGetFullTransactionId(i64 noundef %0) #2 {
  %2 = alloca %struct.FullTransactionId, align 8
  %3 = alloca i64, align 8
  store i64 %0, ptr %3, align 8
  %4 = load i64, ptr %3, align 8
  %5 = call i64 @DatumGetUInt64(i64 noundef %4)
  %6 = call i64 @FullTransactionIdFromU64(i64 noundef %5)
  %7 = getelementptr inbounds nuw %struct.FullTransactionId, ptr %2, i32 0, i32 0
  store i64 %6, ptr %7, align 8
  %8 = getelementptr inbounds nuw %struct.FullTransactionId, ptr %2, i32 0, i32 0
  %9 = load i64, ptr %8, align 8
  ret i64 %9
}

; Function Attrs: nounwind uwtable
define dso_local i64 @pg_xact_status(ptr noundef %0) #0 {
  %2 = alloca i64, align 8
  %3 = alloca ptr, align 8
  %4 = alloca ptr, align 8
  %5 = alloca %struct.FullTransactionId, align 8
  %6 = alloca i32, align 4
  %7 = alloca i32, align 4
  store ptr %0, ptr %3, align 8
  call void @llvm.lifetime.start.p0(i64 8, ptr %4) #9
  call void @llvm.lifetime.start.p0(i64 8, ptr %5) #9
  %8 = load ptr, ptr %3, align 8
  %9 = getelementptr inbounds nuw %struct.FunctionCallInfoBaseData, ptr %8, i32 0, i32 6
  %10 = getelementptr inbounds [0 x %struct.NullableDatum], ptr %9, i64 0, i64 0
  %11 = getelementptr inbounds nuw %struct.NullableDatum, ptr %10, i32 0, i32 0
  %12 = load i64, ptr %11, align 8
  %13 = call i64 @DatumGetFullTransactionId(i64 noundef %12)
  %14 = getelementptr inbounds nuw %struct.FullTransactionId, ptr %5, i32 0, i32 0
  store i64 %13, ptr %14, align 8
  call void @llvm.lifetime.start.p0(i64 4, ptr %6) #9
  %15 = load ptr, ptr @MainLWLockArray, align 8
  %16 = getelementptr inbounds %union.LWLockPadded, ptr %15, i64 44
  %17 = call zeroext i1 @LWLockAcquire(ptr noundef %16, i32 noundef 1)
  %18 = getelementptr inbounds nuw %struct.FullTransactionId, ptr %5, i32 0, i32 0
  %19 = load i64, ptr %18, align 8
  %20 = call zeroext i1 @TransactionIdInRecentPast(i64 %19, ptr noundef %6)
  br i1 %20, label %21, label %32

21:                                               ; preds = %1
  %22 = load i32, ptr %6, align 4
  %23 = call zeroext i1 @TransactionIdIsInProgress(i32 noundef %22)
  br i1 %23, label %24, label %25

24:                                               ; preds = %21
  store ptr @.str.6, ptr %4, align 8
  br label %31

25:                                               ; preds = %21
  %26 = load i32, ptr %6, align 4
  %27 = call zeroext i1 @TransactionIdDidCommit(i32 noundef %26)
  br i1 %27, label %28, label %29

28:                                               ; preds = %25
  store ptr @.str.7, ptr %4, align 8
  br label %30

29:                                               ; preds = %25
  store ptr @.str.8, ptr %4, align 8
  br label %30

30:                                               ; preds = %29, %28
  br label %31

31:                                               ; preds = %30, %24
  br label %33

32:                                               ; preds = %1
  store ptr null, ptr %4, align 8
  br label %33

33:                                               ; preds = %32, %31
  %34 = load ptr, ptr @MainLWLockArray, align 8
  %35 = getelementptr inbounds %union.LWLockPadded, ptr %34, i64 44
  call void @LWLockRelease(ptr noundef %35)
  %36 = load ptr, ptr %4, align 8
  %37 = icmp eq ptr %36, null
  br i1 %37, label %38, label %44

38:                                               ; preds = %33
  br label %39

39:                                               ; preds = %38
  %40 = load ptr, ptr %3, align 8
  %41 = getelementptr inbounds nuw %struct.FunctionCallInfoBaseData, ptr %40, i32 0, i32 4
  store i8 1, ptr %41, align 4
  store i64 0, ptr %2, align 8
  store i32 1, ptr %7, align 4
  br label %49

42:                                               ; No predecessors!
  br label %43

43:                                               ; preds = %42
  br label %48

44:                                               ; preds = %33
  %45 = load ptr, ptr %4, align 8
  %46 = call ptr @cstring_to_text(ptr noundef %45)
  %47 = call i64 @PointerGetDatum(ptr noundef %46)
  store i64 %47, ptr %2, align 8
  store i32 1, ptr %7, align 4
  br label %49

48:                                               ; preds = %43
  store i32 0, ptr %7, align 4
  br label %49

49:                                               ; preds = %48, %44, %39
  call void @llvm.lifetime.end.p0(i64 4, ptr %6) #9
  call void @llvm.lifetime.end.p0(i64 8, ptr %5) #9
  call void @llvm.lifetime.end.p0(i64 8, ptr %4) #9
  %50 = load i32, ptr %7, align 4
  switch i32 %50, label %53 [
    i32 0, label %51
    i32 1, label %51
  ]

51:                                               ; preds = %49, %49
  %52 = load i64, ptr %2, align 8
  ret i64 %52

53:                                               ; preds = %49
  unreachable
}