; Function Attrs: nounwind uwtable
define dso_local i64 @pg_xact_status(ptr noundef captures(none) %0) local_unnamed_addr #0 {
  %2 = getelementptr inbounds nuw i8, ptr %0, i64 32
  %3 = load i64, ptr %2, align 8
  %4 = load ptr, ptr @MainLWLockArray, align 8
  %5 = getelementptr inbounds nuw i8, ptr %4, i64 5632
  %6 = tail call zeroext i1 @LWLockAcquire(ptr noundef nonnull %5, i32 noundef 1) #11
  %7 = trunc i64 %3 to i32
  %8 = tail call i64 @ReadNextFullTransactionId() #11
  %.not.i = icmp eq i32 %7, 0
  br i1 %.not.i, label %TransactionIdInRecentPast.exit.thread9, label %9

9:                                                ; preds = %1
  %10 = icmp ugt i32 %7, 2
  br i1 %10, label %11, label %TransactionIdInRecentPast.exit.thread

11:                                               ; preds = %9
  %12 = icmp ult i64 %3, %8
  br i1 %12, label %17, label %13

13:                                               ; preds = %11
  %14 = tail call zeroext i1 @errstart_cold(i32 noundef 21, ptr noundef null) #12
  tail call void @llvm.assume(i1 %14)
  %15 = tail call i32 @errcode(i32 noundef 50856066) #11
  %16 = tail call i32 (ptr, ...) @errmsg(ptr noundef nonnull @.str.11, i64 noundef %3) #11
  tail call void @errfinish(ptr noundef nonnull @.str.2, i32 noundef 121, ptr noundef nonnull @__func__.TransactionIdInRecentPast) #11
  unreachable

17:                                               ; preds = %11
  %18 = load ptr, ptr @TransamVariables, align 8
  %19 = getelementptr inbounds nuw i8, ptr %18, i64 64
  %20 = load i32, ptr %19, align 8
  %21 = icmp ugt i32 %20, 2
  br i1 %21, label %24, label %22

22:                                               ; preds = %17
  %23 = zext nneg i32 %20 to i64
  br label %TransactionIdInRecentPast.exit

24:                                               ; preds = %17
  %25 = lshr i64 %8, 32
  %26 = trunc i64 %8 to i32
  %27 = icmp ugt i32 %20, %26
  br i1 %27, label %28, label %31, !prof !4

28:                                               ; preds = %24
  %29 = add nuw nsw i64 %25, 4294967295
  %30 = and i64 %29, 4294967295
  br label %31

31:                                               ; preds = %28, %24
  %.0.i.i = phi i64 [ %30, %28 ], [ %25, %24 ]
  %32 = shl nuw i64 %.0.i.i, 32
  %33 = zext i32 %20 to i64
  %34 = or disjoint i64 %32, %33
  br label %TransactionIdInRecentPast.exit

TransactionIdInRecentPast.exit:                   ; preds = %22, %31
  %.sroa.07.0.i.i = phi i64 [ %34, %31 ], [ %23, %22 ]
  %.not = icmp ult i64 %3, %.sroa.07.0.i.i
  br i1 %.not, label %TransactionIdInRecentPast.exit.thread9, label %TransactionIdInRecentPast.exit.thread

TransactionIdInRecentPast.exit.thread:            ; preds = %9, %TransactionIdInRecentPast.exit
  %35 = tail call zeroext i1 @TransactionIdIsInProgress(i32 noundef %7) #11
  br i1 %35, label %41, label %36

36:                                               ; preds = %TransactionIdInRecentPast.exit.thread
  %37 = tail call zeroext i1 @TransactionIdDidCommit(i32 noundef %7) #11
  %.str.7..str.8 = select i1 %37, ptr @.str.7, ptr @.str.8
  br label %41

TransactionIdInRecentPast.exit.thread9:           ; preds = %1, %TransactionIdInRecentPast.exit
  %38 = load ptr, ptr @MainLWLockArray, align 8
  %39 = getelementptr inbounds nuw i8, ptr %38, i64 5632
  tail call void @LWLockRelease(ptr noundef nonnull %39) #11
  %40 = getelementptr inbounds nuw i8, ptr %0, i64 28
  store i8 1, ptr %40, align 4
  br label %46

41:                                               ; preds = %TransactionIdInRecentPast.exit.thread, %36
  %.04.ph = phi ptr [ %.str.7..str.8, %36 ], [ @.str.6, %TransactionIdInRecentPast.exit.thread ]
  %42 = load ptr, ptr @MainLWLockArray, align 8
  %43 = getelementptr inbounds nuw i8, ptr %42, i64 5632
  tail call void @LWLockRelease(ptr noundef nonnull %43) #11
  %44 = tail call ptr @cstring_to_text(ptr noundef nonnull %.04.ph) #11
  %45 = ptrtoint ptr %44 to i64
  br label %46

46:                                               ; preds = %41, %TransactionIdInRecentPast.exit.thread9
  %.0 = phi i64 [ 0, %TransactionIdInRecentPast.exit.thread9 ], [ %45, %41 ]
  ret i64 %.0
}